; Function Attrs: nofree norecurse nosync nounwind memory(read, argmem: readwrite, inaccessiblemem: none) uwtable
define internal void @planar_rgb9be_to_y(ptr noundef writeonly captures(none) %0, ptr noundef readonly captures(none) %1, i32 noundef %2, ptr noundef readonly captures(none) %3, ptr readnone captures(none) %4) #2 {
  %6 = load i32, ptr %3, align 4, !tbaa !42
  %7 = getelementptr inbounds nuw i8, ptr %3, i64 4
  %8 = load i32, ptr %7, align 4, !tbaa !42
  %9 = getelementptr inbounds nuw i8, ptr %3, i64 8
  %10 = load i32, ptr %9, align 4, !tbaa !42
  %11 = icmp sgt i32 %2, 0
  br i1 %11, label %.lr.ph, label %planar_rgb16_to_y.exit

.lr.ph:                                           ; preds = %5
  %12 = load ptr, ptr %1, align 8, !tbaa !46
  %13 = getelementptr inbounds nuw i8, ptr %1, i64 8
  %14 = load ptr, ptr %13, align 8, !tbaa !46
  %15 = getelementptr inbounds nuw i8, ptr %1, i64 16
  %16 = load ptr, ptr %15, align 8, !tbaa !46
  %wide.trip.count = zext nneg i32 %2 to i64
  br label %17

17:                                               ; preds = %.lr.ph, %17
  %indvars.iv = phi i64 [ 0, %.lr.ph ], [ %indvars.iv.next, %17 ]
  %18 = getelementptr inbounds nuw i16, ptr %12, i64 %indvars.iv
  %19 = load i16, ptr %18, align 1, !tbaa !34
  %20 = tail call i16 @llvm.bswap.i16(i16 %19)
  %21 = zext i16 %20 to i32
  %22 = getelementptr inbounds nuw i16, ptr %14, i64 %indvars.iv
  %23 = load i16, ptr %22, align 1, !tbaa !34
  %24 = tail call i16 @llvm.bswap.i16(i16 %23)
  %25 = zext i16 %24 to i32
  %26 = getelementptr inbounds nuw i16, ptr %16, i64 %indvars.iv
  %27 = load i16, ptr %26, align 1, !tbaa !34
  %28 = tail call i16 @llvm.bswap.i16(i16 %27)
  %29 = zext i16 %28 to i32
  %30 = mul nsw i32 %6, %29
  %31 = mul nsw i32 %8, %21
  %32 = mul nsw i32 %10, %25
  %33 = add i32 %31, 1049088
  %34 = add i32 %33, %32
  %35 = add i32 %34, %30
  %36 = lshr i32 %35, 10
  %37 = trunc i32 %36 to i16
  %38 = getelementptr inbounds nuw i16, ptr %0, i64 %indvars.iv
  store i16 %37, ptr %38, align 2, !tbaa !43
  %indvars.iv.next = add nuw nsw i64 %indvars.iv, 1
  %exitcond.not = icmp eq i64 %indvars.iv.next, %wide.trip.count
  br i1 %exitcond.not, label %planar_rgb16_to_y.exit, label %17, !llvm.loop !91

planar_rgb16_to_y.exit:                           ; preds = %17, %5
  ret void
}